target datalayout = "e-m:e-p270:32:32-p271:32:32-p272:64:64-i64:64-i128:128-f80:128-n8:16:32:64-S128"
target triple = "x86_64-pc-linux-gnu"

; Function Attrs: alwaysinline nounwind willreturn memory(none) uwtable
define internal i32 @av_clip_c(i32 noundef %0, i32 noundef %1, i32 noundef %2) #8 {
  %4 = alloca i32, align 4
  %5 = alloca i32, align 4
  %6 = alloca i32, align 4
  %7 = alloca i32, align 4
  store i32 %0, ptr %5, align 4, !tbaa !11
  store i32 %1, ptr %6, align 4, !tbaa !11
  store i32 %2, ptr %7, align 4, !tbaa !11
  %8 = load i32, ptr %5, align 4, !tbaa !11
  %9 = load i32, ptr %6, align 4, !tbaa !11
  %10 = icmp slt i32 %8, %9
  br i1 %10, label %11, label %13

11:                                               ; preds = %3
  %12 = load i32, ptr %6, align 4, !tbaa !11
  store i32 %12, ptr %4, align 4
  br label %21

13:                                               ; preds = %3
  %14 = load i32, ptr %5, align 4, !tbaa !11
  %15 = load i32, ptr %7, align 4, !tbaa !11
  %16 = icmp sgt i32 %14, %15
  br i1 %16, label %17, label %19

17:                                               ; preds = %13
  %18 = load i32, ptr %7, align 4, !tbaa !11
  store i32 %18, ptr %4, align 4
  br label %21

19:                                               ; preds = %13
  %20 = load i32, ptr %5, align 4, !tbaa !11
  store i32 %20, ptr %4, align 4
  br label %21

21:                                               ; preds = %19, %17, %11
  %22 = load i32, ptr %4, align 4
  ret i32 %22
}

; Function Attrs: nounwind uwtable
define internal void @filter16_3x3(ptr noundef %0, i32 noundef %1, float noundef %2, float noundef %3, ptr noundef %4, ptr noundef %5, i32 noundef %6, i32 noundef %7, i32 noundef %8, i32 noundef %9, i32 noundef %10) #0 {
  %12 = alloca ptr, align 8
  %13 = alloca i32, align 4
  %14 = alloca float, align 4
  %15 = alloca float, align 4
  %16 = alloca ptr, align 8
  %17 = alloca ptr, align 8
  %18 = alloca i32, align 4
  %19 = alloca i32, align 4
  %20 = alloca i32, align 4
  %21 = alloca i32, align 4
  %22 = alloca i32, align 4
  %23 = alloca ptr, align 8
  %24 = alloca i32, align 4
  %25 = alloca i32, align 4
  store ptr %0, ptr %12, align 8, !tbaa !9
  store i32 %1, ptr %13, align 4, !tbaa !11
  store float %2, ptr %14, align 4, !tbaa !52
  store float %3, ptr %15, align 4, !tbaa !52
  store ptr %4, ptr %16, align 8, !tbaa !53
  store ptr %5, ptr %17, align 8, !tbaa !89
  store i32 %6, ptr %18, align 4, !tbaa !11
  store i32 %7, ptr %19, align 4, !tbaa !11
  store i32 %8, ptr %20, align 4, !tbaa !11
  store i32 %9, ptr %21, align 4, !tbaa !11
  store i32 %10, ptr %22, align 4, !tbaa !11
  call void @llvm.lifetime.start.p0(i64 8, ptr %23) #10
  %26 = load ptr, ptr %12, align 8, !tbaa !9
  store ptr %26, ptr %23, align 8, !tbaa !114
  call void @llvm.lifetime.start.p0(i64 4, ptr %24) #10
  store i32 0, ptr %24, align 4, !tbaa !11
  br label %27

27:                                               ; preds = %172, %11
  %28 = load i32, ptr %24, align 4, !tbaa !11
  %29 = load i32, ptr %13, align 4, !tbaa !11
  %30 = icmp slt i32 %28, %29
  br i1 %30, label %31, label %175

31:                                               ; preds = %27
  call void @llvm.lifetime.start.p0(i64 4, ptr %25) #10
  %32 = load ptr, ptr %17, align 8, !tbaa !89
  %33 = getelementptr inbounds ptr, ptr %32, i64 0
  %34 = load ptr, ptr %33, align 8, !tbaa !9
  %35 = load i32, ptr %24, align 4, !tbaa !11
  %36 = mul nsw i32 2, %35
  %37 = sext i32 %36 to i64
  %38 = getelementptr inbounds i8, ptr %34, i64 %37
  %39 = load i16, ptr %38, align 2, !tbaa !91
  %40 = zext i16 %39 to i32
  %41 = load ptr, ptr %16, align 8, !tbaa !53
  %42 = getelementptr inbounds i32, ptr %41, i64 0
  %43 = load i32, ptr %42, align 4, !tbaa !11
  %44 = mul nsw i32 %40, %43
  %45 = load ptr, ptr %17, align 8, !tbaa !89
  %46 = getelementptr inbounds ptr, ptr %45, i64 1
  %47 = load ptr, ptr %46, align 8, !tbaa !9
  %48 = load i32, ptr %24, align 4, !tbaa !11
  %49 = mul nsw i32 2, %48
  %50 = sext i32 %49 to i64
  %51 = getelementptr inbounds i8, ptr %47, i64 %50
  %52 = load i16, ptr %51, align 2, !tbaa !91
  %53 = zext i16 %52 to i32
  %54 = load ptr, ptr %16, align 8, !tbaa !53
  %55 = getelementptr inbounds i32, ptr %54, i64 1
  %56 = load i32, ptr %55, align 4, !tbaa !11
  %57 = mul nsw i32 %53, %56
  %58 = add nsw i32 %44, %57
  %59 = load ptr, ptr %17, align 8, !tbaa !89
  %60 = getelementptr inbounds ptr, ptr %59, i64 2
  %61 = load ptr, ptr %60, align 8, !tbaa !9
  %62 = load i32, ptr %24, align 4, !tbaa !11
  %63 = mul nsw i32 2, %62
  %64 = sext i32 %63 to i64
  %65 = getelementptr inbounds i8, ptr %61, i64 %64
  %66 = load i16, ptr %65, align 2, !tbaa !91
  %67 = zext i16 %66 to i32
  %68 = load ptr, ptr %16, align 8, !tbaa !53
  %69 = getelementptr inbounds i32, ptr %68, i64 2
  %70 = load i32, ptr %69, align 4, !tbaa !11
  %71 = mul nsw i32 %67, %70
  %72 = add nsw i32 %58, %71
  %73 = load ptr, ptr %17, align 8, !tbaa !89
  %74 = getelementptr inbounds ptr, ptr %73, i64 3
  %75 = load ptr, ptr %74, align 8, !tbaa !9
  %76 = load i32, ptr %24, align 4, !tbaa !11
  %77 = mul nsw i32 2, %76
  %78 = sext i32 %77 to i64
  %79 = getelementptr inbounds i8, ptr %75, i64 %78
  %80 = load i16, ptr %79, align 2, !tbaa !91
  %81 = zext i16 %80 to i32
  %82 = load ptr, ptr %16, align 8, !tbaa !53
  %83 = getelementptr inbounds i32, ptr %82, i64 3
  %84 = load i32, ptr %83, align 4, !tbaa !11
  %85 = mul nsw i32 %81, %84
  %86 = add nsw i32 %72, %85
  %87 = load ptr, ptr %17, align 8, !tbaa !89
  %88 = getelementptr inbounds ptr, ptr %87, i64 4
  %89 = load ptr, ptr %88, align 8, !tbaa !9
  %90 = load i32, ptr %24, align 4, !tbaa !11
  %91 = mul nsw i32 2, %90
  %92 = sext i32 %91 to i64
  %93 = getelementptr inbounds i8, ptr %89, i64 %92
  %94 = load i16, ptr %93, align 2, !tbaa !91
  %95 = zext i16 %94 to i32
  %96 = load ptr, ptr %16, align 8, !tbaa !53
  %97 = getelementptr inbounds i32, ptr %96, i64 4
  %98 = load i32, ptr %97, align 4, !tbaa !11
  %99 = mul nsw i32 %95, %98
  %100 = add nsw i32 %86, %99
  %101 = load ptr, ptr %17, align 8, !tbaa !89
  %102 = getelementptr inbounds ptr, ptr %101, i64 5
  %103 = load ptr, ptr %102, align 8, !tbaa !9
  %104 = load i32, ptr %24, align 4, !tbaa !11
  %105 = mul nsw i32 2, %104
  %106 = sext i32 %105 to i64
  %107 = getelementptr inbounds i8, ptr %103, i64 %106
  %108 = load i16, ptr %107, align 2, !tbaa !91
  %109 = zext i16 %108 to i32
  %110 = load ptr, ptr %16, align 8, !tbaa !53
  %111 = getelementptr inbounds i32, ptr %110, i64 5
  %112 = load i32, ptr %111, align 4, !tbaa !11
  %113 = mul nsw i32 %109, %112
  %114 = add nsw i32 %100, %113
  %115 = load ptr, ptr %17, align 8, !tbaa !89
  %116 = getelementptr inbounds ptr, ptr %115, i64 6
  %117 = load ptr, ptr %116, align 8, !tbaa !9
  %118 = load i32, ptr %24, align 4, !tbaa !11
  %119 = mul nsw i32 2, %118
  %120 = sext i32 %119 to i64
  %121 = getelementptr inbounds i8, ptr %117, i64 %120
  %122 = load i16, ptr %121, align 2, !tbaa !91
  %123 = zext i16 %122 to i32
  %124 = load ptr, ptr %16, align 8, !tbaa !53
  %125 = getelementptr inbounds i32, ptr %124, i64 6
  %126 = load i32, ptr %125, align 4, !tbaa !11
  %127 = mul nsw i32 %123, %126
  %128 = add nsw i32 %114, %127
  %129 = load ptr, ptr %17, align 8, !tbaa !89
  %130 = getelementptr inbounds ptr, ptr %129, i64 7
  %131 = load ptr, ptr %130, align 8, !tbaa !9
  %132 = load i32, ptr %24, align 4, !tbaa !11
  %133 = mul nsw i32 2, %132
  %134 = sext i32 %133 to i64
  %135 = getelementptr inbounds i8, ptr %131, i64 %134
  %136 = load i16, ptr %135, align 2, !tbaa !91
  %137 = zext i16 %136 to i32
  %138 = load ptr, ptr %16, align 8, !tbaa !53
  %139 = getelementptr inbounds i32, ptr %138, i64 7
  %140 = load i32, ptr %139, align 4, !tbaa !11
  %141 = mul nsw i32 %137, %140
  %142 = add nsw i32 %128, %141
  %143 = load ptr, ptr %17, align 8, !tbaa !89
  %144 = getelementptr inbounds ptr, ptr %143, i64 8
  %145 = load ptr, ptr %144, align 8, !tbaa !9
  %146 = load i32, ptr %24, align 4, !tbaa !11
  %147 = mul nsw i32 2, %146
  %148 = sext i32 %147 to i64
  %149 = getelementptr inbounds i8, ptr %145, i64 %148
  %150 = load i16, ptr %149, align 2, !tbaa !91
  %151 = zext i16 %150 to i32
  %152 = load ptr, ptr %16, align 8, !tbaa !53
  %153 = getelementptr inbounds i32, ptr %152, i64 8
  %154 = load i32, ptr %153, align 4, !tbaa !11
  %155 = mul nsw i32 %151, %154
  %156 = add nsw i32 %142, %155
  store i32 %156, ptr %25, align 4, !tbaa !11
  %157 = load i32, ptr %25, align 4, !tbaa !11
  %158 = sitofp i32 %157 to float
  %159 = load float, ptr %14, align 4, !tbaa !52
  %160 = load float, ptr %15, align 4, !tbaa !52
  %161 = call nsz float @llvm.fmuladd.f32(float %158, float %159, float %160)
  %162 = fadd nsz float %161, 5.000000e-01
  %163 = fptosi float %162 to i32
  store i32 %163, ptr %25, align 4, !tbaa !11
  %164 = load i32, ptr %25, align 4, !tbaa !11
  %165 = load i32, ptr %18, align 4, !tbaa !11
  %166 = call i32 @av_clip_c(i32 noundef %164, i32 noundef 0, i32 noundef %165) #12
  %167 = trunc i32 %166 to i16
  %168 = load ptr, ptr %23, align 8, !tbaa !114
  %169 = load i32, ptr %24, align 4, !tbaa !11
  %170 = sext i32 %169 to i64
  %171 = getelementptr inbounds i16, ptr %168, i64 %170
  store i16 %167, ptr %171, align 2, !tbaa !117
  call void @llvm.lifetime.end.p0(i64 4, ptr %25) #10
  br label %172

172:                                              ; preds = %31
  %173 = load i32, ptr %24, align 4, !tbaa !11
  %174 = add nsw i32 %173, 1
  store i32 %174, ptr %24, align 4, !tbaa !11
  br label %27, !llvm.loop !124

175:                                              ; preds = %27
  call void @llvm.lifetime.end.p0(i64 4, ptr %24) #10
  call void @llvm.lifetime.end.p0(i64 8, ptr %23) #10
  ret void
}