; Function Attrs: nofree norecurse nosync nounwind memory(read, argmem: readwrite, inaccessiblemem: none) uwtable
define internal void @filter16_3x3(ptr noundef writeonly captures(none) %0, i32 noundef %1, float noundef %2, float noundef %3, ptr noundef readonly captures(none) %4, ptr noundef readonly captures(none) %5, i32 noundef %6, i32 %7, i32 %8, i32 %9, i32 %10) #6 {
  %12 = icmp sgt i32 %1, 0
  br i1 %12, label %.lr.ph, label %._crit_edge

.lr.ph:                                           ; preds = %11
  %13 = load ptr, ptr %5, align 8, !tbaa !46
  %14 = load i32, ptr %4, align 4, !tbaa !39
  %15 = getelementptr inbounds nuw i8, ptr %5, i64 8
  %16 = load ptr, ptr %15, align 8, !tbaa !46
  %17 = getelementptr inbounds nuw i8, ptr %4, i64 4
  %18 = load i32, ptr %17, align 4, !tbaa !39
  %19 = getelementptr inbounds nuw i8, ptr %5, i64 16
  %20 = load ptr, ptr %19, align 8, !tbaa !46
  %21 = getelementptr inbounds nuw i8, ptr %4, i64 8
  %22 = load i32, ptr %21, align 4, !tbaa !39
  %23 = getelementptr inbounds nuw i8, ptr %5, i64 24
  %24 = load ptr, ptr %23, align 8, !tbaa !46
  %25 = getelementptr inbounds nuw i8, ptr %4, i64 12
  %26 = load i32, ptr %25, align 4, !tbaa !39
  %27 = getelementptr inbounds nuw i8, ptr %5, i64 32
  %28 = load ptr, ptr %27, align 8, !tbaa !46
  %29 = getelementptr inbounds nuw i8, ptr %4, i64 16
  %30 = load i32, ptr %29, align 4, !tbaa !39
  %31 = getelementptr inbounds nuw i8, ptr %5, i64 40
  %32 = load ptr, ptr %31, align 8, !tbaa !46
  %33 = getelementptr inbounds nuw i8, ptr %4, i64 20
  %34 = load i32, ptr %33, align 4, !tbaa !39
  %35 = getelementptr inbounds nuw i8, ptr %5, i64 48
  %36 = load ptr, ptr %35, align 8, !tbaa !46
  %37 = getelementptr inbounds nuw i8, ptr %4, i64 24
  %38 = load i32, ptr %37, align 4, !tbaa !39
  %39 = getelementptr inbounds nuw i8, ptr %5, i64 56
  %40 = load ptr, ptr %39, align 8, !tbaa !46
  %41 = getelementptr inbounds nuw i8, ptr %4, i64 28
  %42 = load i32, ptr %41, align 4, !tbaa !39
  %43 = getelementptr inbounds nuw i8, ptr %5, i64 64
  %44 = load ptr, ptr %43, align 8, !tbaa !46
  %45 = getelementptr inbounds nuw i8, ptr %4, i64 32
  %46 = load i32, ptr %45, align 4, !tbaa !39
  %wide.trip.count = zext nneg i32 %1 to i64
  br label %47

47:                                               ; preds = %.lr.ph, %47
  %indvars.iv = phi i64 [ 0, %.lr.ph ], [ %indvars.iv.next, %47 ]
  %48 = shl nuw nsw i64 %indvars.iv, 1
  %49 = getelementptr inbounds nuw i8, ptr %13, i64 %48
  %50 = load i16, ptr %49, align 2, !tbaa !82
  %51 = zext i16 %50 to i32
  %52 = mul nsw i32 %14, %51
  %53 = getelementptr inbounds nuw i8, ptr %16, i64 %48
  %54 = load i16, ptr %53, align 2, !tbaa !82
  %55 = zext i16 %54 to i32
  %56 = mul nsw i32 %18, %55
  %57 = add nsw i32 %56, %52
  %58 = getelementptr inbounds nuw i8, ptr %20, i64 %48
  %59 = load i16, ptr %58, align 2, !tbaa !82
  %60 = zext i16 %59 to i32
  %61 = mul nsw i32 %22, %60
  %62 = add nsw i32 %57, %61
  %63 = getelementptr inbounds nuw i8, ptr %24, i64 %48
  %64 = load i16, ptr %63, align 2, !tbaa !82
  %65 = zext i16 %64 to i32
  %66 = mul nsw i32 %26, %65
  %67 = add nsw i32 %62, %66
  %68 = getelementptr inbounds nuw i8, ptr %28, i64 %48
  %69 = load i16, ptr %68, align 2, !tbaa !82
  %70 = zext i16 %69 to i32
  %71 = mul nsw i32 %30, %70
  %72 = add nsw i32 %67, %71
  %73 = getelementptr inbounds nuw i8, ptr %32, i64 %48
  %74 = load i16, ptr %73, align 2, !tbaa !82
  %75 = zext i16 %74 to i32
  %76 = mul nsw i32 %34, %75
  %77 = add nsw i32 %72, %76
  %78 = getelementptr inbounds nuw i8, ptr %36, i64 %48
  %79 = load i16, ptr %78, align 2, !tbaa !82
  %80 = zext i16 %79 to i32
  %81 = mul nsw i32 %38, %80
  %82 = add nsw i32 %77, %81
  %83 = getelementptr inbounds nuw i8, ptr %40, i64 %48
  %84 = load i16, ptr %83, align 2, !tbaa !82
  %85 = zext i16 %84 to i32
  %86 = mul nsw i32 %42, %85
  %87 = add nsw i32 %82, %86
  %88 = getelementptr inbounds nuw i8, ptr %44, i64 %48
  %89 = load i16, ptr %88, align 2, !tbaa !82
  %90 = zext i16 %89 to i32
  %91 = mul nsw i32 %46, %90
  %92 = add nsw i32 %87, %91
  %93 = sitofp i32 %92 to float
  %94 = tail call nsz float @llvm.fmuladd.f32(float %93, float %2, float %3)
  %95 = fadd nsz float %94, 5.000000e-01
  %96 = fptosi float %95 to i32
  %97 = icmp slt i32 %96, 0
  %..i = tail call i32 @llvm.smin.i32(i32 %6, i32 %96)
  %98 = trunc i32 %..i to i16
  %99 = select i1 %97, i16 0, i16 %98
  %100 = getelementptr inbounds nuw i16, ptr %0, i64 %indvars.iv
  store i16 %99, ptr %100, align 2, !tbaa !103
  %indvars.iv.next = add nuw nsw i64 %indvars.iv, 1
  %exitcond.not = icmp eq i64 %indvars.iv.next, %wide.trip.count
  br i1 %exitcond.not, label %._crit_edge, label %47, !llvm.loop !111

._crit_edge:                                      ; preds = %47, %11
  ret void
}